target datalayout = "e-m:e-p270:32:32-p271:32:32-p272:64:64-i64:64-i128:128-f80:128-n8:16:32:64-S128"
target triple = "x86_64-pc-linux-gnu"

%struct.ossl_cmp_itav_st = type { ptr, %union.anon }
%union.anon = type { ptr }

@OSSL_CMP_ITAV_it.local_it = internal constant { i8, [7 x i8], i64, ptr, i64, ptr, i64, ptr } { i8 1, [7 x i8] zeroinitializer, i64 16, ptr @OSSL_CMP_ITAV_seq_tt, i64 2, ptr null, i64 16, ptr @.str.6 }, align 8
@.str.12 = private unnamed_addr constant [32 x i8] c"../openssl/crypto/cmp/cmp_asn.c\00", align 1

; Function Attrs: nounwind uwtable
define ptr @OSSL_CMP_ITAV_it() #0 {
  ret ptr @OSSL_CMP_ITAV_it.local_it
}

; Function Attrs: nounwind uwtable
define void @OSSL_CMP_ITAV_free(ptr noundef %0) #0 {
  %2 = alloca ptr, align 8
  store ptr %0, ptr %2, align 8, !tbaa !28
  %3 = load ptr, ptr %2, align 8, !tbaa !28
  %4 = call ptr @OSSL_CMP_ITAV_it()
  call void @ASN1_item_free(ptr noundef %3, ptr noundef %4)
  ret void
}

; Function Attrs: inlinehint nounwind uwtable
define internal ptr @ossl_check_X509_CRL_type(ptr noundef %0) #3 {
  %2 = alloca ptr, align 8
  store ptr %0, ptr %2, align 8, !tbaa !112
  %3 = load ptr, ptr %2, align 8, !tbaa !112
  ret ptr %3
}

; Function Attrs: inlinehint nounwind uwtable
define internal ptr @ossl_check_X509_CRL_sk_type(ptr noundef %0) #3 {
  %2 = alloca ptr, align 8
  store ptr %0, ptr %2, align 8, !tbaa !142
  %3 = load ptr, ptr %2, align 8, !tbaa !142
  ret ptr %3
}

; Function Attrs: inlinehint nounwind uwtable
define internal ptr @ossl_check_X509_CRL_compfunc_type(ptr noundef %0) #3 {
  %2 = alloca ptr, align 8
  store ptr %0, ptr %2, align 8, !tbaa !69
  %3 = load ptr, ptr %2, align 8, !tbaa !69
  ret ptr %3
}

; Function Attrs: nounwind uwtable
define ptr @OSSL_CMP_ITAV_new() #0 {
  %1 = call ptr @OSSL_CMP_ITAV_it()
  %2 = call ptr @ASN1_item_new(ptr noundef %1)
  ret ptr %2
}

; Function Attrs: nounwind uwtable
define ptr @OSSL_CMP_ITAV_new_crls(ptr noundef %0) #0 {
  %2 = alloca ptr, align 8
  %3 = alloca ptr, align 8
  %4 = alloca ptr, align 8
  %5 = alloca ptr, align 8
  %6 = alloca ptr, align 8
  %7 = alloca i32, align 4
  store ptr %0, ptr %3, align 8, !tbaa !112
  call void @llvm.lifetime.start.p0(i64 8, ptr %4) #4
  call void @llvm.lifetime.start.p0(i64 8, ptr %5) #4
  store ptr null, ptr %5, align 8, !tbaa !112
  call void @llvm.lifetime.start.p0(i64 8, ptr %6) #4
  store ptr null, ptr %6, align 8, !tbaa !142
  %8 = call ptr @OSSL_CMP_ITAV_new()
  store ptr %8, ptr %4, align 8, !tbaa !28
  %9 = icmp eq ptr %8, null
  br i1 %9, label %10, label %11

10:                                               ; preds = %1
  store ptr null, ptr %2, align 8
  store i32 1, ptr %7, align 4
  br label %44

11:                                               ; preds = %1
  %12 = load ptr, ptr %3, align 8, !tbaa !112
  %13 = icmp ne ptr %12, null
  br i1 %13, label %14, label %31

14:                                               ; preds = %11
  %15 = call ptr @ossl_check_X509_CRL_compfunc_type(ptr noundef null)
  %16 = call ptr @OPENSSL_sk_new_reserve(ptr noundef %15, i32 noundef 1)
  store ptr %16, ptr %6, align 8, !tbaa !142
  %17 = icmp eq ptr %16, null
  br i1 %17, label %29, label %18

18:                                               ; preds = %14
  %19 = load ptr, ptr %3, align 8, !tbaa !112
  %20 = call ptr @X509_CRL_dup(ptr noundef %19)
  store ptr %20, ptr %5, align 8, !tbaa !112
  %21 = icmp eq ptr %20, null
  br i1 %21, label %29, label %22

22:                                               ; preds = %18
  %23 = load ptr, ptr %6, align 8, !tbaa !142
  %24 = call ptr @ossl_check_X509_CRL_sk_type(ptr noundef %23)
  %25 = load ptr, ptr %5, align 8, !tbaa !112
  %26 = call ptr @ossl_check_X509_CRL_type(ptr noundef %25)
  %27 = call i32 @OPENSSL_sk_push(ptr noundef %24, ptr noundef %26)
  %28 = icmp ne i32 %27, 0
  br i1 %28, label %30, label %29

29:                                               ; preds = %22, %18, %14
  br label %39

30:                                               ; preds = %22
  store ptr null, ptr %5, align 8, !tbaa !112
  br label %31

31:                                               ; preds = %30, %11
  %32 = call ptr @OBJ_nid2obj(i32 noundef 1257)
  %33 = load ptr, ptr %4, align 8, !tbaa !28
  %34 = getelementptr inbounds nuw %struct.ossl_cmp_itav_st, ptr %33, i32 0, i32 0
  store ptr %32, ptr %34, align 8, !tbaa !54
  %35 = load ptr, ptr %6, align 8, !tbaa !142
  %36 = load ptr, ptr %4, align 8, !tbaa !28
  %37 = getelementptr inbounds nuw %struct.ossl_cmp_itav_st, ptr %36, i32 0, i32 1
  store ptr %35, ptr %37, align 8, !tbaa !56
  %38 = load ptr, ptr %4, align 8, !tbaa !28
  store ptr %38, ptr %2, align 8
  store i32 1, ptr %7, align 4
  br label %44

39:                                               ; preds = %29
  %40 = load ptr, ptr %5, align 8, !tbaa !112
  call void @CRYPTO_free(ptr noundef %40, ptr noundef @.str.12, i32 noundef 811)
  %41 = load ptr, ptr %6, align 8, !tbaa !142
  %42 = call ptr @ossl_check_X509_CRL_sk_type(ptr noundef %41)
  call void @OPENSSL_sk_free(ptr noundef %42)
  %43 = load ptr, ptr %4, align 8, !tbaa !28
  call void @OSSL_CMP_ITAV_free(ptr noundef %43)
  store ptr null, ptr %2, align 8
  store i32 1, ptr %7, align 4
  br label %44

44:                                               ; preds = %39, %31, %10
  call void @llvm.lifetime.end.p0(i64 8, ptr %6) #4
  call void @llvm.lifetime.end.p0(i64 8, ptr %5) #4
  call void @llvm.lifetime.end.p0(i64 8, ptr %4) #4
  %45 = load ptr, ptr %2, align 8
  ret ptr %45
}