; Function Attrs: nounwind uwtable
define ptr @OSSL_CMP_ITAV_new_crls(ptr noundef %0) local_unnamed_addr #1 {
  %2 = tail call ptr @ASN1_item_new(ptr noundef nonnull @OSSL_CMP_ITAV_it.local_it) #6
  %3 = icmp eq ptr %2, null
  br i1 %3, label %17, label %4

4:                                                ; preds = %1
  %.not = icmp eq ptr %0, null
  br i1 %.not, label %13, label %5

5:                                                ; preds = %4
  %6 = tail call ptr @OPENSSL_sk_new_reserve(ptr noundef null, i32 noundef 1) #6
  %7 = icmp eq ptr %6, null
  br i1 %7, label %16, label %8

8:                                                ; preds = %5
  %9 = tail call ptr @X509_CRL_dup(ptr noundef nonnull %0) #6
  %10 = icmp eq ptr %9, null
  br i1 %10, label %16, label %11

11:                                               ; preds = %8
  %12 = tail call i32 @OPENSSL_sk_push(ptr noundef nonnull %6, ptr noundef nonnull %9) #6
  %.not18 = icmp eq i32 %12, 0
  br i1 %.not18, label %16, label %13

13:                                               ; preds = %11, %4
  %.0 = phi ptr [ null, %4 ], [ %6, %11 ]
  %14 = tail call ptr @OBJ_nid2obj(i32 noundef 1257) #6
  store ptr %14, ptr %2, align 8, !tbaa !3
  %15 = getelementptr inbounds nuw i8, ptr %2, i64 8
  store ptr %.0, ptr %15, align 8, !tbaa !9
  br label %17

16:                                               ; preds = %5, %8, %11
  %.012 = phi ptr [ null, %5 ], [ null, %8 ], [ %9, %11 ]
  tail call void @CRYPTO_free(ptr noundef %.012, ptr noundef nonnull @.str.12, i32 noundef 811) #6
  tail call void @OPENSSL_sk_free(ptr noundef %6) #6
  tail call void @ASN1_item_free(ptr noundef nonnull %2, ptr noundef nonnull @OSSL_CMP_ITAV_it.local_it) #6
  br label %17

17:                                               ; preds = %1, %16, %13
  %.013 = phi ptr [ null, %16 ], [ %2, %13 ], [ null, %1 ]
  ret ptr %.013
}